; ModuleID = '35/1949.c'
source_filename = "35/1949.c"
target datalayout = "e-m:e-p270:32:32-p271:32:32-p272:64:64-i64:64-f80:128-n8:16:32:64-S128"
target triple = "x86_64-pc-linux-gnu"

@.str = private unnamed_addr constant [7 x i8] c"%d%c%d\00", align 1
@.str.1 = private unnamed_addr constant [3 x i8] c"%d\00", align 1
@.str.2 = private unnamed_addr constant [3 x i8] c"No\00", align 1

; Function Attrs: noinline nounwind uwtable
define dso_local i32 @main() #0 {
  %1 = alloca i32, align 4
  %2 = alloca i32, align 4
  %3 = alloca i32, align 4
  %4 = alloca [100 x [100 x i32]], align 16
  %5 = alloca i8, align 1
  %6 = alloca i8, align 1
  %7 = alloca i32, align 4
  %8 = alloca i32, align 4
  %9 = alloca [100 x i32], align 16
  %10 = alloca [100 x i32], align 16
  %11 = alloca i32, align 4
  store i32 0, i32* %1, align 4
  store i8 44, i8* %5, align 1
  store i8 43, i8* %6, align 1
  %12 = call i32 (i8*, ...) @__isoc99_scanf(i8* getelementptr inbounds ([7 x i8], [7 x i8]* @.str, i64 0, i64 0), i32* %2, i8* %5, i32* %3)
  store i32 0, i32* %11, align 4
  store i32 0, i32* %7, align 4
  br label %13

13:                                               ; preds = %34, %0
  %14 = load i32, i32* %7, align 4
  %15 = load i32, i32* %2, align 4
  %16 = icmp slt i32 %14, %15
  br i1 %16, label %17, label %37

17:                                               ; preds = %13
  store i32 0, i32* %8, align 4
  br label %18

18:                                               ; preds = %30, %17
  %19 = load i32, i32* %8, align 4
  %20 = load i32, i32* %3, align 4
  %21 = icmp slt i32 %19, %20
  br i1 %21, label %22, label %33

22:                                               ; preds = %18
  %23 = load i32, i32* %7, align 4
  %24 = sext i32 %23 to i64
  %25 = getelementptr inbounds [100 x [100 x i32]], [100 x [100 x i32]]* %4, i64 0, i64 %24
  %26 = load i32, i32* %8, align 4
  %27 = sext i32 %26 to i64
  %28 = getelementptr inbounds [100 x i32], [100 x i32]* %25, i64 0, i64 %27
  %29 = call i32 (i8*, ...) @__isoc99_scanf(i8* getelementptr inbounds ([3 x i8], [3 x i8]* @.str.1, i64 0, i64 0), i32* %28)
  br label %30

30:                                               ; preds = %22
  %31 = load i32, i32* %8, align 4
  %32 = add nsw i32 %31, 1
  store i32 %32, i32* %8, align 4
  br label %18

33:                                               ; preds = %18
  br label %34

34:                                               ; preds = %33
  %35 = load i32, i32* %7, align 4
  %36 = add nsw i32 %35, 1
  store i32 %36, i32* %7, align 4
  br label %13

37:                                               ; preds = %13
  store i32 0, i32* %7, align 4
  br label %38

38:                                               ; preds = %91, %37
  %39 = load i32, i32* %7, align 4
  %40 = load i32, i32* %2, align 4
  %41 = icmp slt i32 %39, %40
  br i1 %41, label %42, label %94

42:                                               ; preds = %38
  store i32 0, i32* %8, align 4
  br label %43

43:                                               ; preds = %87, %42
  %44 = load i32, i32* %8, align 4
  %45 = load i32, i32* %3, align 4
  %46 = icmp slt i32 %44, %45
  br i1 %46, label %47, label %90

47:                                               ; preds = %43
  %48 = load i32, i32* %8, align 4
  %49 = icmp eq i32 %48, 0
  br i1 %49, label %50, label %61

50:                                               ; preds = %47
  %51 = load i32, i32* %7, align 4
  %52 = sext i32 %51 to i64
  %53 = getelementptr inbounds [100 x [100 x i32]], [100 x [100 x i32]]* %4, i64 0, i64 %52
  %54 = load i32, i32* %8, align 4
  %55 = sext i32 %54 to i64
  %56 = getelementptr inbounds [100 x i32], [100 x i32]* %53, i64 0, i64 %55
  %57 = load i32, i32* %56, align 4
  %58 = load i32, i32* %7, align 4
  %59 = sext i32 %58 to i64
  %60 = getelementptr inbounds [100 x i32], [100 x i32]* %10, i64 0, i64 %59
  store i32 %57, i32* %60, align 4
  br label %86

61:                                               ; preds = %47
  %62 = load i32, i32* %7, align 4
  %63 = sext i32 %62 to i64
  %64 = getelementptr inbounds [100 x [100 x i32]], [100 x [100 x i32]]* %4, i64 0, i64 %63
  %65 = load i32, i32* %8, align 4
  %66 = sext i32 %65 to i64
  %67 = getelementptr inbounds [100 x i32], [100 x i32]* %64, i64 0, i64 %66
  %68 = load i32, i32* %67, align 4
  %69 = load i32, i32* %7, align 4
  %70 = sext i32 %69 to i64
  %71 = getelementptr inbounds [100 x i32], [100 x i32]* %10, i64 0, i64 %70
  %72 = load i32, i32* %71, align 4
  %73 = icmp sgt i32 %68, %72
  br i1 %73, label %74, label %85

74:                                               ; preds = %61
  %75 = load i32, i32* %7, align 4
  %76 = sext i32 %75 to i64
  %77 = getelementptr inbounds [100 x [100 x i32]], [100 x [100 x i32]]* %4, i64 0, i64 %76
  %78 = load i32, i32* %8, align 4
  %79 = sext i32 %78 to i64
  %80 = getelementptr inbounds [100 x i32], [100 x i32]* %77, i64 0, i64 %79
  %81 = load i32, i32* %80, align 4
  %82 = load i32, i32* %7, align 4
  %83 = sext i32 %82 to i64
  %84 = getelementptr inbounds [100 x i32], [100 x i32]* %10, i64 0, i64 %83
  store i32 %81, i32* %84, align 4
  br label %85

85:                                               ; preds = %74, %61
  br label %86

86:                                               ; preds = %85, %50
  br label %87

87:                                               ; preds = %86
  %88 = load i32, i32* %8, align 4
  %89 = add nsw i32 %88, 1
  store i32 %89, i32* %8, align 4
  br label %43

90:                                               ; preds = %43
  br label %91

91:                                               ; preds = %90
  %92 = load i32, i32* %7, align 4
  %93 = add nsw i32 %92, 1
  store i32 %93, i32* %7, align 4
  br label %38

94:                                               ; preds = %38
  store i32 0, i32* %8, align 4
  br label %95

95:                                               ; preds = %148, %94
  %96 = load i32, i32* %8, align 4
  %97 = load i32, i32* %3, align 4
  %98 = icmp slt i32 %96, %97
  br i1 %98, label %99, label %151

99:                                               ; preds = %95
  store i32 0, i32* %7, align 4
  br label %100

100:                                              ; preds = %144, %99
  %101 = load i32, i32* %7, align 4
  %102 = load i32, i32* %2, align 4
  %103 = icmp slt i32 %101, %102
  br i1 %103, label %104, label %147

104:                                              ; preds = %100
  %105 = load i32, i32* %7, align 4
  %106 = icmp eq i32 %105, 0
  br i1 %106, label %107, label %118

107:                                              ; preds = %104
  %108 = load i32, i32* %7, align 4
  %109 = sext i32 %108 to i64
  %110 = getelementptr inbounds [100 x [100 x i32]], [100 x [100 x i32]]* %4, i64 0, i64 %109
  %111 = load i32, i32* %8, align 4
  %112 = sext i32 %111 to i64
  %113 = getelementptr inbounds [100 x i32], [100 x i32]* %110, i64 0, i64 %112
  %114 = load i32, i32* %113, align 4
  %115 = load i32, i32* %8, align 4
  %116 = sext i32 %115 to i64
  %117 = getelementptr inbounds [100 x i32], [100 x i32]* %9, i64 0, i64 %116
  store i32 %114, i32* %117, align 4
  br label %143

118:                                              ; preds = %104
  %119 = load i32, i32* %7, align 4
  %120 = sext i32 %119 to i64
  %121 = getelementptr inbounds [100 x [100 x i32]], [100 x [100 x i32]]* %4, i64 0, i64 %120
  %122 = load i32, i32* %8, align 4
  %123 = sext i32 %122 to i64
  %124 = getelementptr inbounds [100 x i32], [100 x i32]* %121, i64 0, i64 %123
  %125 = load i32, i32* %124, align 4
  %126 = load i32, i32* %8, align 4
  %127 = sext i32 %126 to i64
  %128 = getelementptr inbounds [100 x i32], [100 x i32]* %9, i64 0, i64 %127
  %129 = load i32, i32* %128, align 4
  %130 = icmp slt i32 %125, %129
  br i1 %130, label %131, label %142

131:                                              ; preds = %118
  %132 = load i32, i32* %7, align 4
  %133 = sext i32 %132 to i64
  %134 = getelementptr inbounds [100 x [100 x i32]], [100 x [100 x i32]]* %4, i64 0, i64 %133
  %135 = load i32, i32* %8, align 4
  %136 = sext i32 %135 to i64
  %137 = getelementptr inbounds [100 x i32], [100 x i32]* %134, i64 0, i64 %136
  %138 = load i32, i32* %137, align 4
  %139 = load i32, i32* %8, align 4
  %140 = sext i32 %139 to i64
  %141 = getelementptr inbounds [100 x i32], [100 x i32]* %9, i64 0, i64 %140
  store i32 %138, i32* %141, align 4
  br label %142

142:                                              ; preds = %131, %118
  br label %143

143:                                              ; preds = %142, %107
  br label %144

144:                                              ; preds = %143
  %145 = load i32, i32* %7, align 4
  %146 = add nsw i32 %145, 1
  store i32 %146, i32* %7, align 4
  br label %100

147:                                              ; preds = %100
  br label %148

148:                                              ; preds = %147
  %149 = load i32, i32* %8, align 4
  %150 = add nsw i32 %149, 1
  store i32 %150, i32* %8, align 4
  br label %95

151:                                              ; preds = %95
  store i32 0, i32* %7, align 4
  br label %152

152:                                              ; preds = %196, %151
  %153 = load i32, i32* %7, align 4
  %154 = load i32, i32* %2, align 4
  %155 = icmp slt i32 %153, %154
  br i1 %155, label %156, label %199

156:                                              ; preds = %152
  store i32 0, i32* %8, align 4
  br label %157

157:                                              ; preds = %192, %156
  %158 = load i32, i32* %8, align 4
  %159 = load i32, i32* %3, align 4
  %160 = icmp slt i32 %158, %159
  br i1 %160, label %161, label %195

161:                                              ; preds = %157
  %162 = load i32, i32* %7, align 4
  %163 = sext i32 %162 to i64
  %164 = getelementptr inbounds [100 x [100 x i32]], [100 x [100 x i32]]* %4, i64 0, i64 %163
  %165 = load i32, i32* %8, align 4
  %166 = sext i32 %165 to i64
  %167 = getelementptr inbounds [100 x i32], [100 x i32]* %164, i64 0, i64 %166
  %168 = load i32, i32* %167, align 4
  %169 = load i32, i32* %7, align 4
  %170 = sext i32 %169 to i64
  %171 = getelementptr inbounds [100 x i32], [100 x i32]* %10, i64 0, i64 %170
  %172 = load i32, i32* %171, align 4
  %173 = icmp eq i32 %168, %172
  br i1 %173, label %174, label %191

174:                                              ; preds = %161
  %175 = load i32, i32* %7, align 4
  %176 = sext i32 %175 to i64
  %177 = getelementptr inbounds [100 x i32], [100 x i32]* %10, i64 0, i64 %176
  %178 = load i32, i32* %177, align 4
  %179 = load i32, i32* %8, align 4
  %180 = sext i32 %179 to i64
  %181 = getelementptr inbounds [100 x i32], [100 x i32]* %9, i64 0, i64 %180
  %182 = load i32, i32* %181, align 4
  %183 = icmp eq i32 %178, %182
  br i1 %183, label %184, label %190

184:                                              ; preds = %174
  %185 = load i32, i32* %7, align 4
  %186 = load i8, i8* %6, align 1
  %187 = sext i8 %186 to i32
  %188 = load i32, i32* %8, align 4
  %189 = call i32 (i8*, ...) @printf(i8* getelementptr inbounds ([7 x i8], [7 x i8]* @.str, i64 0, i64 0), i32 %185, i32 %187, i32 %188)
  store i32 1, i32* %11, align 4
  br label %190

190:                                              ; preds = %184, %174
  br label %191

191:                                              ; preds = %190, %161
  br label %192

192:                                              ; preds = %191
  %193 = load i32, i32* %8, align 4
  %194 = add nsw i32 %193, 1
  store i32 %194, i32* %8, align 4
  br label %157

195:                                              ; preds = %157
  br label %196

196:                                              ; preds = %195
  %197 = load i32, i32* %7, align 4
  %198 = add nsw i32 %197, 1
  store i32 %198, i32* %7, align 4
  br label %152

199:                                              ; preds = %152
  %200 = load i32, i32* %11, align 4
  %201 = icmp eq i32 %200, 0
  br i1 %201, label %202, label %204

202:                                              ; preds = %199
  %203 = call i32 (i8*, ...) @printf(i8* getelementptr inbounds ([3 x i8], [3 x i8]* @.str.2, i64 0, i64 0))
  br label %204

204:                                              ; preds = %202, %199
  ret i32 0
}

declare dso_local i32 @__isoc99_scanf(i8*, ...) #1

declare dso_local i32 @printf(i8*, ...) #1


!llvm.module.flags = !{!0}
!llvm.ident = !{!1}

!0 = !{i32 1, !"wchar_size", i32 4}
!1 = !{!"clang version 10.0.0-4ubuntu1 "}
